target datalayout = "e-m:e-p270:32:32-p271:32:32-p272:64:64-i64:64-i128:128-f80:128-n8:16:32:64-S128"
target triple = "x86_64-pc-linux-gnu"

%struct.JNINativeInterface_ = type { ptr, ptr, ptr, ptr, ptr, ptr, ptr, ptr, ptr, ptr, ptr, ptr, ptr, ptr, ptr, ptr, ptr, ptr, ptr, ptr, ptr, ptr, ptr, ptr, ptr, ptr, ptr, ptr, ptr, ptr, ptr, ptr, ptr, ptr, ptr, ptr, ptr, ptr, ptr, ptr, ptr, ptr, ptr, ptr, ptr, ptr, ptr, ptr, ptr, ptr, ptr, ptr, ptr, ptr, ptr, ptr, ptr, ptr, ptr, ptr, ptr, ptr, ptr, ptr, ptr, ptr, ptr, ptr, ptr, ptr, ptr, ptr, ptr, ptr, ptr, ptr, ptr, ptr, ptr, ptr, ptr, ptr, ptr, ptr, ptr, ptr, ptr, ptr, ptr, ptr, ptr, ptr, ptr, ptr, ptr, ptr, ptr, ptr, ptr, ptr, ptr, ptr, ptr, ptr, ptr, ptr, ptr, ptr, ptr, ptr, ptr, ptr, ptr, ptr, ptr, ptr, ptr, ptr, ptr, ptr, ptr, ptr, ptr, ptr, ptr, ptr, ptr, ptr, ptr, ptr, ptr, ptr, ptr, ptr, ptr, ptr, ptr, ptr, ptr, ptr, ptr, ptr, ptr, ptr, ptr, ptr, ptr, ptr, ptr, ptr, ptr, ptr, ptr, ptr, ptr, ptr, ptr, ptr, ptr, ptr, ptr, ptr, ptr, ptr, ptr, ptr, ptr, ptr, ptr, ptr, ptr, ptr, ptr, ptr, ptr, ptr, ptr, ptr, ptr, ptr, ptr, ptr, ptr, ptr, ptr, ptr, ptr, ptr, ptr, ptr, ptr, ptr, ptr, ptr, ptr, ptr, ptr, ptr, ptr, ptr, ptr, ptr, ptr, ptr, ptr, ptr, ptr, ptr, ptr, ptr, ptr, ptr, ptr, ptr, ptr, ptr, ptr, ptr, ptr, ptr, ptr, ptr, ptr, ptr, ptr, ptr, ptr, ptr, ptr, ptr, ptr, ptr, ptr, ptr, ptr }
%struct.gss_buffer_desc_struct = type { i64, ptr }

@.str.91 = private unnamed_addr constant [27 x i8] c"java/lang/OutOfMemoryError\00", align 1

; Function Attrs: nounwind uwtable
define hidden void @gssThrowOutOfMemoryError(ptr noundef %0, ptr noundef %1) #0 {
  %3 = alloca ptr, align 8
  %4 = alloca ptr, align 8
  %5 = alloca ptr, align 8
  store ptr %0, ptr %3, align 8
  store ptr %1, ptr %4, align 8
  %6 = load ptr, ptr %3, align 8
  %7 = load ptr, ptr %6, align 8
  %8 = getelementptr inbounds %struct.JNINativeInterface_, ptr %7, i32 0, i32 6
  %9 = load ptr, ptr %8, align 8
  %10 = load ptr, ptr %3, align 8
  %11 = call ptr %9(ptr noundef %10, ptr noundef @.str.91)
  store ptr %11, ptr %5, align 8
  %12 = load ptr, ptr %5, align 8
  %13 = icmp ne ptr %12, null
  br i1 %13, label %14, label %23

14:                                               ; preds = %2
  %15 = load ptr, ptr %3, align 8
  %16 = load ptr, ptr %15, align 8
  %17 = getelementptr inbounds %struct.JNINativeInterface_, ptr %16, i32 0, i32 14
  %18 = load ptr, ptr %17, align 8
  %19 = load ptr, ptr %3, align 8
  %20 = load ptr, ptr %5, align 8
  %21 = load ptr, ptr %4, align 8
  %22 = call i32 %18(ptr noundef %19, ptr noundef %20, ptr noundef %21)
  br label %23

23:                                               ; preds = %14, %2
  ret void
}

; Function Attrs: nounwind uwtable
define hidden void @initGSSBuffer(ptr noundef %0, ptr noundef %1, ptr noundef %2) #0 {
  %4 = alloca ptr, align 8
  %5 = alloca ptr, align 8
  %6 = alloca ptr, align 8
  %7 = alloca i32, align 4
  %8 = alloca ptr, align 8
  store ptr %0, ptr %4, align 8
  store ptr %1, ptr %5, align 8
  store ptr %2, ptr %6, align 8
  %9 = load ptr, ptr %5, align 8
  %10 = icmp ne ptr %9, null
  br i1 %10, label %11, label %54

11:                                               ; preds = %3
  %12 = load ptr, ptr %4, align 8
  %13 = load ptr, ptr %12, align 8
  %14 = getelementptr inbounds %struct.JNINativeInterface_, ptr %13, i32 0, i32 171
  %15 = load ptr, ptr %14, align 8
  %16 = load ptr, ptr %4, align 8
  %17 = load ptr, ptr %5, align 8
  %18 = call i32 %15(ptr noundef %16, ptr noundef %17)
  store i32 %18, ptr %7, align 4
  %19 = load i32, ptr %7, align 4
  %20 = sext i32 %19 to i64
  %21 = call noalias ptr @malloc(i64 noundef %20) #6
  store ptr %21, ptr %8, align 8
  %22 = load ptr, ptr %8, align 8
  %23 = icmp eq ptr %22, null
  br i1 %23, label %24, label %26

24:                                               ; preds = %11
  %25 = load ptr, ptr %4, align 8
  call void @gssThrowOutOfMemoryError(ptr noundef %25, ptr noundef null)
  br label %59

26:                                               ; preds = %11
  %27 = load ptr, ptr %4, align 8
  %28 = load ptr, ptr %27, align 8
  %29 = getelementptr inbounds %struct.JNINativeInterface_, ptr %28, i32 0, i32 200
  %30 = load ptr, ptr %29, align 8
  %31 = load ptr, ptr %4, align 8
  %32 = load ptr, ptr %5, align 8
  %33 = load i32, ptr %7, align 4
  %34 = load ptr, ptr %8, align 8
  call void %30(ptr noundef %31, ptr noundef %32, i32 noundef 0, i32 noundef %33, ptr noundef %34)
  %35 = load ptr, ptr %4, align 8
  %36 = load ptr, ptr %35, align 8
  %37 = getelementptr inbounds %struct.JNINativeInterface_, ptr %36, i32 0, i32 228
  %38 = load ptr, ptr %37, align 8
  %39 = load ptr, ptr %4, align 8
  %40 = call zeroext i8 %38(ptr noundef %39)
  %41 = icmp ne i8 %40, 0
  br i1 %41, label %42, label %44

42:                                               ; preds = %26
  %43 = load ptr, ptr %8, align 8
  call void @free(ptr noundef %43) #5
  br label %59

44:                                               ; preds = %26
  %45 = load i32, ptr %7, align 4
  %46 = sext i32 %45 to i64
  %47 = load ptr, ptr %6, align 8
  %48 = getelementptr inbounds %struct.gss_buffer_desc_struct, ptr %47, i32 0, i32 0
  store i64 %46, ptr %48, align 8
  %49 = load ptr, ptr %8, align 8
  %50 = load ptr, ptr %6, align 8
  %51 = getelementptr inbounds %struct.gss_buffer_desc_struct, ptr %50, i32 0, i32 1
  store ptr %49, ptr %51, align 8
  br label %52

52:                                               ; preds = %44
  br label %53

53:                                               ; preds = %52
  br label %59

54:                                               ; preds = %3
  %55 = load ptr, ptr %6, align 8
  %56 = getelementptr inbounds %struct.gss_buffer_desc_struct, ptr %55, i32 0, i32 0
  store i64 0, ptr %56, align 8
  %57 = load ptr, ptr %6, align 8
  %58 = getelementptr inbounds %struct.gss_buffer_desc_struct, ptr %57, i32 0, i32 1
  store ptr null, ptr %58, align 8
  br label %59

59:                                               ; preds = %54, %53, %42, %24
  ret void
}