; Function Attrs: nounwind uwtable
define hidden void @initGSSBuffer(ptr noundef %0, ptr noundef %1, ptr nocapture noundef writeonly %2) local_unnamed_addr #0 {
  %.not = icmp eq ptr %1, null
  br i1 %.not, label %32, label %4

4:                                                ; preds = %3
  %5 = load ptr, ptr %0, align 8
  %6 = getelementptr inbounds i8, ptr %5, i64 1368
  %7 = load ptr, ptr %6, align 8
  %8 = tail call i32 %7(ptr noundef nonnull %0, ptr noundef nonnull %1) #12
  %9 = sext i32 %8 to i64
  %10 = tail call noalias ptr @malloc(i64 noundef %9) #15
  %11 = icmp eq ptr %10, null
  %12 = load ptr, ptr %0, align 8
  br i1 %11, label %13, label %22

13:                                               ; preds = %4
  %14 = getelementptr inbounds i8, ptr %12, i64 48
  %15 = load ptr, ptr %14, align 8
  %16 = tail call ptr %15(ptr noundef nonnull %0, ptr noundef nonnull @.str.91) #12
  %.not.i = icmp eq ptr %16, null
  br i1 %.not.i, label %gssThrowOutOfMemoryError.exit, label %17

17:                                               ; preds = %13
  %18 = load ptr, ptr %0, align 8
  %19 = getelementptr inbounds i8, ptr %18, i64 112
  %20 = load ptr, ptr %19, align 8
  %21 = tail call i32 %20(ptr noundef nonnull %0, ptr noundef nonnull %16, ptr noundef null) #12
  br label %gssThrowOutOfMemoryError.exit

22:                                               ; preds = %4
  %23 = getelementptr inbounds i8, ptr %12, i64 1600
  %24 = load ptr, ptr %23, align 8
  tail call void %24(ptr noundef nonnull %0, ptr noundef nonnull %1, i32 noundef 0, i32 noundef %8, ptr noundef nonnull %10) #12
  %25 = load ptr, ptr %0, align 8
  %26 = getelementptr inbounds i8, ptr %25, i64 1824
  %27 = load ptr, ptr %26, align 8
  %28 = tail call zeroext i8 %27(ptr noundef nonnull %0) #12
  %.not21 = icmp eq i8 %28, 0
  br i1 %.not21, label %30, label %29

29:                                               ; preds = %22
  tail call void @free(ptr noundef nonnull %10) #12
  br label %gssThrowOutOfMemoryError.exit

30:                                               ; preds = %22
  store i64 %9, ptr %2, align 8
  %31 = getelementptr inbounds i8, ptr %2, i64 8
  store ptr %10, ptr %31, align 8
  br label %gssThrowOutOfMemoryError.exit

32:                                               ; preds = %3
  tail call void @llvm.memset.p0.i64(ptr noundef nonnull align 8 dereferenceable(16) %2, i8 0, i64 16, i1 false)
  br label %gssThrowOutOfMemoryError.exit

gssThrowOutOfMemoryError.exit:                    ; preds = %17, %13, %32, %30, %29
  ret void
}